; Function Attrs: mustprogress uwtable
define dso_local void @_ZN4Luau4Json12ArrayEmitterC2ENS_7NotNullINS0_11JsonEmitterEEE(ptr noundef nonnull writeonly align 8 captures(none) dereferenceable(10) initializes((0, 10)) %0, ptr nonnull %1) unnamed_addr #0 align 2 {
  %3 = alloca i8, align 1
  %.cast = ptrtoint ptr %1 to i64
  store i64 %.cast, ptr %0, align 8, !tbaa !4
  %4 = getelementptr inbounds nuw i8, ptr %0, i64 9
  store i8 0, ptr %4, align 1, !tbaa !25
  %5 = load i8, ptr %1, align 8, !tbaa !13, !range !20, !noundef !21
  store i8 0, ptr %1, align 8, !tbaa !13
  %6 = getelementptr inbounds nuw i8, ptr %0, i64 8
  store i8 %5, ptr %6, align 8, !tbaa !27
  call void @llvm.lifetime.start.p0(i64 1, ptr nonnull %3)
  store i8 91, ptr %3, align 1, !tbaa !23
  call void @_ZN4Luau4Json11JsonEmitter8writeRawESt17basic_string_viewIcSt11char_traitsIcEE(ptr noundef nonnull align 8 dereferenceable(32) %1, i64 1, ptr nonnull %3)
  call void @llvm.lifetime.end.p0(i64 1, ptr nonnull %3)
  ret void
}